target datalayout = "e-m:e-p270:32:32-p271:32:32-p272:64:64-i64:64-i128:128-f80:128-n8:16:32:64-S128"
target triple = "x86_64-unknown-linux-gnu"

%"class.icu_75::UnicodeString" = type { %"class.icu_75::Replaceable", %"union.icu_75::UnicodeString::StackBufferOrFields" }
%"class.icu_75::Replaceable" = type { %"class.icu_75::UObject" }
%"class.icu_75::UObject" = type { ptr }
%"union.icu_75::UnicodeString::StackBufferOrFields" = type { %struct.anon.0, [32 x i8] }
%struct.anon.0 = type { i16, i32, i32, ptr }
%"class.icu_75::TransliteratorEntry" = type { i32, %"class.icu_75::UnicodeString", i32, ptr, %union.anon }
%union.anon = type { %struct.anon.1 }
%struct.anon.1 = type { ptr, %"union.icu_75::Transliterator::Token" }
%"union.icu_75::Transliterator::Token" = type { ptr }

@_ZN6icu_7519TransliteratorEntryC1Ev = unnamed_addr alias void (ptr), ptr @_ZN6icu_7519TransliteratorEntryC2Ev

; Function Attrs: mustprogress nounwind uwtable
define void @_ZN6icu_7519TransliteratorEntry10setFactoryEPFPNS_14TransliteratorERKNS_13UnicodeStringENS1_5TokenEES6_(ptr noundef nonnull align 8 dereferenceable(104) %this, ptr noundef %factory, ptr %context.coerce) #0 align 2 {
entry:
  %context = alloca %"union.icu_75::Transliterator::Token", align 8
  %this.addr = alloca ptr, align 8
  %factory.addr = alloca ptr, align 8
  %coerce.dive = getelementptr inbounds %"union.icu_75::Transliterator::Token", ptr %context, i32 0, i32 0
  store ptr %context.coerce, ptr %coerce.dive, align 8
  store ptr %this, ptr %this.addr, align 8
  store ptr %factory, ptr %factory.addr, align 8
  %this1 = load ptr, ptr %this.addr, align 8
  %entryType = getelementptr inbounds %"class.icu_75::TransliteratorEntry", ptr %this1, i32 0, i32 0
  %0 = load i32, ptr %entryType, align 8
  %cmp = icmp eq i32 %0, 3
  br i1 %cmp, label %if.then, label %if.end

if.then:                                          ; preds = %entry
  %u = getelementptr inbounds %"class.icu_75::TransliteratorEntry", ptr %this1, i32 0, i32 4
  %1 = load ptr, ptr %u, align 8
  %isnull = icmp eq ptr %1, null
  br i1 %isnull, label %delete.end, label %delete.notnull

delete.notnull:                                   ; preds = %if.then
  %vtable = load ptr, ptr %1, align 8
  %vfn = getelementptr inbounds ptr, ptr %vtable, i64 1
  %2 = load ptr, ptr %vfn, align 8
  call void %2(ptr noundef nonnull align 8 dereferenceable(84) %1) #9
  br label %delete.end

delete.end:                                       ; preds = %delete.notnull, %if.then
  br label %if.end

if.end:                                           ; preds = %delete.end, %entry
  %entryType2 = getelementptr inbounds %"class.icu_75::TransliteratorEntry", ptr %this1, i32 0, i32 0
  store i32 7, ptr %entryType2, align 8
  %3 = load ptr, ptr %factory.addr, align 8
  %u3 = getelementptr inbounds %"class.icu_75::TransliteratorEntry", ptr %this1, i32 0, i32 4
  %function = getelementptr inbounds %struct.anon.1, ptr %u3, i32 0, i32 0
  store ptr %3, ptr %function, align 8
  %u4 = getelementptr inbounds %"class.icu_75::TransliteratorEntry", ptr %this1, i32 0, i32 4
  %context5 = getelementptr inbounds %struct.anon.1, ptr %u4, i32 0, i32 1
  call void @llvm.memcpy.p0.p0.i64(ptr align 8 %context5, ptr align 8 %context, i64 8, i1 false)
  ret void
}

; Function Attrs: mustprogress uwtable
define void @_ZN6icu_7522TransliteratorRegistry3putERKNS_13UnicodeStringEPFPNS_14TransliteratorES3_NS4_5TokenEES6_aR10UErrorCode(ptr noundef nonnull align 8 dereferenceable(312) %this, ptr noundef nonnull align 8 dereferenceable(64) %ID, ptr noundef %factory, ptr %context.coerce, i8 noundef signext %visible, ptr noundef nonnull align 4 dereferenceable(4) %ec) #1 align 2 personality ptr @__gxx_personality_v0 {
entry:
  %context = alloca %"union.icu_75::Transliterator::Token", align 8
  %this.addr = alloca ptr, align 8
  %ID.addr = alloca ptr, align 8
  %factory.addr = alloca ptr, align 8
  %visible.addr = alloca i8, align 1
  %ec.addr = alloca ptr, align 8
  %entry2 = alloca ptr, align 8
  %cleanup.cond = alloca i1, align 1
  %exn.slot = alloca ptr, align 8
  %ehselector.slot = alloca i32, align 4
  %agg.tmp = alloca %"union.icu_75::Transliterator::Token", align 8
  %coerce.dive = getelementptr inbounds %"union.icu_75::Transliterator::Token", ptr %context, i32 0, i32 0
  store ptr %context.coerce, ptr %coerce.dive, align 8
  store ptr %this, ptr %this.addr, align 8
  store ptr %ID, ptr %ID.addr, align 8
  store ptr %factory, ptr %factory.addr, align 8
  store i8 %visible, ptr %visible.addr, align 1
  store ptr %ec, ptr %ec.addr, align 8
  %this1 = load ptr, ptr %this.addr, align 8
  %call = call noundef ptr @_ZN6icu_757UMemorynwEm(i64 noundef 104) #9
  %new.isnull = icmp eq ptr %call, null
  store i1 false, ptr %cleanup.cond, align 1
  br i1 %new.isnull, label %new.cont, label %new.notnull

new.notnull:                                      ; preds = %entry
  store i1 true, ptr %cleanup.cond, align 1
  invoke void @_ZN6icu_7519TransliteratorEntryC1Ev(ptr noundef nonnull align 8 dereferenceable(104) %call)
          to label %invoke.cont unwind label %lpad

invoke.cont:                                      ; preds = %new.notnull
  br label %new.cont

new.cont:                                         ; preds = %invoke.cont, %entry
  %0 = phi ptr [ %call, %invoke.cont ], [ null, %entry ]
  store ptr %0, ptr %entry2, align 8
  %1 = load ptr, ptr %entry2, align 8
  %cmp = icmp eq ptr %1, null
  br i1 %cmp, label %if.then, label %if.end

if.then:                                          ; preds = %new.cont
  %2 = load ptr, ptr %ec.addr, align 8
  store i32 7, ptr %2, align 4
  br label %return

lpad:                                             ; preds = %new.notnull
  %3 = landingpad { ptr, i32 }
          cleanup
  %4 = extractvalue { ptr, i32 } %3, 0
  store ptr %4, ptr %exn.slot, align 8
  %5 = extractvalue { ptr, i32 } %3, 1
  store i32 %5, ptr %ehselector.slot, align 4
  %cleanup.is_active = load i1, ptr %cleanup.cond, align 1
  br i1 %cleanup.is_active, label %cleanup.action, label %cleanup.done

cleanup.action:                                   ; preds = %lpad
  call void @_ZN6icu_757UMemorydlEPv(ptr noundef %call) #9
  br label %cleanup.done

cleanup.done:                                     ; preds = %cleanup.action, %lpad
  br label %eh.resume

if.end:                                           ; preds = %new.cont
  %6 = load ptr, ptr %entry2, align 8
  %7 = load ptr, ptr %factory.addr, align 8
  call void @llvm.memcpy.p0.p0.i64(ptr align 8 %agg.tmp, ptr align 8 %context, i64 8, i1 false)
  %coerce.dive3 = getelementptr inbounds %"union.icu_75::Transliterator::Token", ptr %agg.tmp, i32 0, i32 0
  %8 = load ptr, ptr %coerce.dive3, align 8
  call void @_ZN6icu_7519TransliteratorEntry10setFactoryEPFPNS_14TransliteratorERKNS_13UnicodeStringENS1_5TokenEES6_(ptr noundef nonnull align 8 dereferenceable(104) %6, ptr noundef %7, ptr %8)
  %9 = load ptr, ptr %ID.addr, align 8
  %10 = load ptr, ptr %entry2, align 8
  %11 = load i8, ptr %visible.addr, align 1
  call void @_ZN6icu_7522TransliteratorRegistry13registerEntryERKNS_13UnicodeStringEPNS_19TransliteratorEntryEa(ptr noundef nonnull align 8 dereferenceable(312) %this1, ptr noundef nonnull align 8 dereferenceable(64) %9, ptr noundef %10, i8 noundef signext %11)
  br label %return

return:                                           ; preds = %if.end, %if.then
  ret void

eh.resume:                                        ; preds = %cleanup.done
  %exn = load ptr, ptr %exn.slot, align 8
  %sel = load i32, ptr %ehselector.slot, align 4
  %lpad.val = insertvalue { ptr, i32 } poison, ptr %exn, 0
  %lpad.val4 = insertvalue { ptr, i32 } %lpad.val, i32 %sel, 1
  resume { ptr, i32 } %lpad.val4
}